target datalayout = "e-m:e-p270:32:32-p271:32:32-p272:64:64-i64:64-i128:128-f80:128-n8:16:32:64-S128"
target triple = "x86_64-pc-linux-gnu"

%struct.H5D_shared_t = type { i64, i8, i64, ptr, ptr, i64, i64, %struct.H5D_dcpl_cache_t, %struct.H5O_layout_t, i8, i32, [32 x i64], [32 x i64], [32 x i64], %struct.anon.6, %struct.H5D_append_flush_t, ptr, ptr }
%struct.H5D_dcpl_cache_t = type { %struct.H5O_fill_t, %struct.H5O_pline_t, %struct.H5O_efl_t }
%struct.H5O_fill_t = type { %struct.H5O_shared_t, i32, ptr, i64, ptr, i32, i32, i8 }
%struct.H5O_shared_t = type { i32, ptr, i32, %union.anon }
%union.anon = type { %struct.H5O_mesg_loc_t }
%struct.H5O_mesg_loc_t = type { i32, i64 }
%struct.H5O_pline_t = type { %struct.H5O_shared_t, i32, i64, i64, ptr }
%struct.H5O_efl_t = type { i64, i64, i64, ptr }
%struct.H5O_layout_t = type { i32, i32, ptr, %union.anon.0, %struct.H5O_storage_t }
%union.anon.0 = type { %struct.H5O_layout_chunk_t }
%struct.H5O_layout_chunk_t = type { i32, i8, i32, [33 x i32], i32, i32, i64, i64, [33 x i64], [33 x i64], [33 x i64], [33 x i64], %union.anon.1 }
%union.anon.1 = type { %struct.H5O_layout_chunk_earray_t }
%struct.H5O_layout_chunk_earray_t = type { %struct.anon.2, i32, [33 x i32], [33 x i64], [33 x i64] }
%struct.anon.2 = type { i8, i8, i8, i8, i8 }
%struct.H5O_storage_t = type { i32, %union.anon.4 }
%union.anon.4 = type { %struct.H5O_storage_virtual_t }
%struct.H5O_storage_virtual_t = type { %struct.H5HG_t, i64, ptr, i64, [32 x i64], i32, i64, i64, i64, i8 }
%struct.H5HG_t = type { i64, i64 }
%struct.anon.6 = type { %struct.H5D_rdcdc_t, %struct.H5D_rdcc_t }
%struct.H5D_rdcdc_t = type { ptr, i64, i64, i64, i8 }
%struct.H5D_rdcc_t = type { %struct.anon.7, i64, i64, double, ptr, ptr, ptr, i64, i32, %struct.H5D_chunk_cached_t, ptr, ptr, ptr, ptr, [32 x i64], [32 x i64], [32 x i32] }
%struct.anon.7 = type { i32, i32, i32, i32 }
%struct.H5D_chunk_cached_t = type { i8, [33 x i64], i64, i32, i64, i32 }
%struct.H5D_append_flush_t = type { i32, [32 x i64], ptr, ptr }
%struct.H5D_t = type { %struct.H5O_loc_t, %struct.H5G_name_t, ptr }
%struct.H5O_loc_t = type { ptr, i64, i8 }
%struct.H5G_name_t = type { ptr, ptr, i32 }

@H5D_init_g = external global i8, align 1
@H5_libterm_g = external global i8, align 1
@.str.2 = private unnamed_addr constant [100 x i8] c"generated/home/dtcxzyw/WorkSpace/Projects/compilers/llvm-opt-benchmark/bench/hdf5/hdf5/src/H5Dint.c\00", align 1
@H5E_WRITEERROR_g = external global i64, align 8
@H5E_IO_g = external global i64, align 8
@__func__.H5D__flush_sieve_buf = private unnamed_addr constant [21 x i8] c"H5D__flush_sieve_buf\00", align 1
@.str.120 = private unnamed_addr constant [19 x i8] c"block write failed\00", align 1

; Function Attrs: nounwind uwtable
define i32 @H5D__flush_sieve_buf(ptr noundef %0) #0 {
  %2 = alloca ptr, align 8
  %3 = alloca i32, align 4
  %4 = alloca i8, align 1
  store ptr %0, ptr %2, align 8, !tbaa !49
  call void @llvm.lifetime.start.p0(i64 4, ptr %3) #12
  store i32 0, ptr %3, align 4, !tbaa !3
  call void @llvm.lifetime.start.p0(i64 1, ptr %4) #12
  store i8 0, ptr %4, align 1, !tbaa !7
  %5 = load i8, ptr @H5D_init_g, align 1, !tbaa !7, !range !9, !noundef !10
  %6 = trunc i8 %5 to i1
  br i1 %6, label %11, label %7

7:                                                ; preds = %1
  %8 = load i8, ptr @H5_libterm_g, align 1, !tbaa !7, !range !9, !noundef !10
  %9 = trunc i8 %8 to i1
  %10 = xor i1 %9, true
  br label %11

11:                                               ; preds = %7, %1
  %12 = phi i1 [ true, %1 ], [ %10, %7 ]
  %13 = xor i1 %12, true
  %14 = xor i1 %13, true
  %15 = zext i1 %14 to i32
  %16 = sext i32 %15 to i64
  %17 = call i64 @llvm.expect.i64(i64 %16, i64 1)
  %18 = icmp ne i64 %17, 0
  br i1 %18, label %19, label %94

19:                                               ; preds = %11
  %20 = load ptr, ptr %2, align 8, !tbaa !49
  %21 = getelementptr inbounds nuw %struct.H5D_t, ptr %20, i32 0, i32 2
  %22 = load ptr, ptr %21, align 8, !tbaa !61
  %23 = getelementptr inbounds nuw %struct.H5D_shared_t, ptr %22, i32 0, i32 14
  %24 = getelementptr inbounds nuw %struct.anon.6, ptr %23, i32 0, i32 0
  %25 = getelementptr inbounds nuw %struct.H5D_rdcdc_t, ptr %24, i32 0, i32 0
  %26 = load ptr, ptr %25, align 8, !tbaa !123
  %27 = icmp ne ptr %26, null
  br i1 %27, label %28, label %92

28:                                               ; preds = %19
  %29 = load ptr, ptr %2, align 8, !tbaa !49
  %30 = getelementptr inbounds nuw %struct.H5D_t, ptr %29, i32 0, i32 2
  %31 = load ptr, ptr %30, align 8, !tbaa !61
  %32 = getelementptr inbounds nuw %struct.H5D_shared_t, ptr %31, i32 0, i32 14
  %33 = getelementptr inbounds nuw %struct.anon.6, ptr %32, i32 0, i32 0
  %34 = getelementptr inbounds nuw %struct.H5D_rdcdc_t, ptr %33, i32 0, i32 4
  %35 = load i8, ptr %34, align 8, !tbaa !192, !range !9, !noundef !10
  %36 = trunc i8 %35 to i1
  br i1 %36, label %37, label %92

37:                                               ; preds = %28
  %38 = load ptr, ptr %2, align 8, !tbaa !49
  %39 = getelementptr inbounds nuw %struct.H5D_t, ptr %38, i32 0, i32 0
  %40 = getelementptr inbounds nuw %struct.H5O_loc_t, ptr %39, i32 0, i32 0
  %41 = load ptr, ptr %40, align 8, !tbaa !96
  %42 = call ptr @H5F_get_shared(ptr noundef %41)
  %43 = load ptr, ptr %2, align 8, !tbaa !49
  %44 = getelementptr inbounds nuw %struct.H5D_t, ptr %43, i32 0, i32 2
  %45 = load ptr, ptr %44, align 8, !tbaa !61
  %46 = getelementptr inbounds nuw %struct.H5D_shared_t, ptr %45, i32 0, i32 14
  %47 = getelementptr inbounds nuw %struct.anon.6, ptr %46, i32 0, i32 0
  %48 = getelementptr inbounds nuw %struct.H5D_rdcdc_t, ptr %47, i32 0, i32 1
  %49 = load i64, ptr %48, align 8, !tbaa !193
  %50 = load ptr, ptr %2, align 8, !tbaa !49
  %51 = getelementptr inbounds nuw %struct.H5D_t, ptr %50, i32 0, i32 2
  %52 = load ptr, ptr %51, align 8, !tbaa !61
  %53 = getelementptr inbounds nuw %struct.H5D_shared_t, ptr %52, i32 0, i32 14
  %54 = getelementptr inbounds nuw %struct.anon.6, ptr %53, i32 0, i32 0
  %55 = getelementptr inbounds nuw %struct.H5D_rdcdc_t, ptr %54, i32 0, i32 2
  %56 = load i64, ptr %55, align 8, !tbaa !194
  %57 = load ptr, ptr %2, align 8, !tbaa !49
  %58 = getelementptr inbounds nuw %struct.H5D_t, ptr %57, i32 0, i32 2
  %59 = load ptr, ptr %58, align 8, !tbaa !61
  %60 = getelementptr inbounds nuw %struct.H5D_shared_t, ptr %59, i32 0, i32 14
  %61 = getelementptr inbounds nuw %struct.anon.6, ptr %60, i32 0, i32 0
  %62 = getelementptr inbounds nuw %struct.H5D_rdcdc_t, ptr %61, i32 0, i32 0
  %63 = load ptr, ptr %62, align 8, !tbaa !123
  %64 = call i32 @H5F_shared_block_write(ptr noundef %42, i32 noundef 3, i64 noundef %49, i64 noundef %56, ptr noundef %63)
  %65 = icmp slt i32 %64, 0
  br i1 %65, label %66, label %85

66:                                               ; preds = %37
  br label %67

67:                                               ; preds = %66
  br label %68

68:                                               ; preds = %67
  br label %69

69:                                               ; preds = %68
  %70 = load i64, ptr @H5E_IO_g, align 8, !tbaa !11
  %71 = load i64, ptr @H5E_WRITEERROR_g, align 8, !tbaa !11
  %72 = call i32 (ptr, ptr, i32, i64, i64, ptr, ...) @H5E_printf_stack(ptr noundef @.str.2, ptr noundef @__func__.H5D__flush_sieve_buf, i32 noundef 3254, i64 noundef %70, i64 noundef %71, ptr noundef @.str.120)
  br label %73

73:                                               ; preds = %69
  br label %74

74:                                               ; preds = %73
  store i8 1, ptr %4, align 1, !tbaa !7
  %75 = load i8, ptr %4, align 1, !tbaa !7, !range !9, !noundef !10
  %76 = trunc i8 %75 to i1
  %77 = zext i1 %76 to i8
  store i8 %77, ptr %4, align 1, !tbaa !7
  br label %78

78:                                               ; preds = %74
  br label %79

79:                                               ; preds = %78
  br label %80

80:                                               ; preds = %79
  store i32 -1, ptr %3, align 4, !tbaa !3
  br label %93

81:                                               ; No predecessors!
  br label %82

82:                                               ; preds = %81
  br label %83

83:                                               ; preds = %82
  br label %84

84:                                               ; preds = %83
  br label %85

85:                                               ; preds = %84, %37
  %86 = load ptr, ptr %2, align 8, !tbaa !49
  %87 = getelementptr inbounds nuw %struct.H5D_t, ptr %86, i32 0, i32 2
  %88 = load ptr, ptr %87, align 8, !tbaa !61
  %89 = getelementptr inbounds nuw %struct.H5D_shared_t, ptr %88, i32 0, i32 14
  %90 = getelementptr inbounds nuw %struct.anon.6, ptr %89, i32 0, i32 0
  %91 = getelementptr inbounds nuw %struct.H5D_rdcdc_t, ptr %90, i32 0, i32 4
  store i8 0, ptr %91, align 8, !tbaa !192
  br label %92

92:                                               ; preds = %85, %28, %19
  br label %93

93:                                               ; preds = %92, %80
  br label %94

94:                                               ; preds = %93, %11
  %95 = load i32, ptr %3, align 4, !tbaa !3
  call void @llvm.lifetime.end.p0(i64 1, ptr %4) #12
  call void @llvm.lifetime.end.p0(i64 4, ptr %3) #12
  ret i32 %95
}