; Function Attrs: nounwind uwtable
define range(i32 -1, 1) i32 @H5D__flush_sieve_buf(ptr noundef readonly captures(none) %0) local_unnamed_addr #0 {
  %2 = load i8, ptr @H5D_init_g, align 1, !tbaa !3, !range !7, !noundef !8
  %3 = trunc nuw i8 %2 to i1
  %4 = load i8, ptr @H5_libterm_g, align 1, !range !7
  %5 = trunc nuw i8 %4 to i1
  %6 = xor i1 %5, true
  %7 = select i1 %3, i1 true, i1 %6
  br i1 %7, label %8, label %36, !prof !9

8:                                                ; preds = %1
  %9 = getelementptr inbounds nuw i8, ptr %0, i64 48
  %10 = load ptr, ptr %9, align 8, !tbaa !52
  %11 = getelementptr inbounds nuw i8, ptr %10, i64 3280
  %12 = load ptr, ptr %11, align 8, !tbaa !103
  %.not = icmp eq ptr %12, null
  br i1 %.not, label %36, label %13

13:                                               ; preds = %8
  %14 = getelementptr inbounds nuw i8, ptr %10, i64 3312
  %15 = load i8, ptr %14, align 8, !tbaa !170, !range !7, !noundef !8
  %16 = trunc nuw i8 %15 to i1
  br i1 %16, label %17, label %36

17:                                               ; preds = %13
  %18 = load ptr, ptr %0, align 8, !tbaa !81
  %19 = tail call ptr @H5F_get_shared(ptr noundef %18) #12
  %20 = load ptr, ptr %9, align 8, !tbaa !52
  %21 = getelementptr inbounds nuw i8, ptr %20, i64 3280
  %22 = getelementptr inbounds nuw i8, ptr %20, i64 3288
  %23 = load i64, ptr %22, align 8, !tbaa !171
  %24 = getelementptr inbounds nuw i8, ptr %20, i64 3296
  %25 = load i64, ptr %24, align 8, !tbaa !172
  %26 = load ptr, ptr %21, align 8, !tbaa !103
  %27 = tail call i32 @H5F_shared_block_write(ptr noundef %19, i32 noundef 3, i64 noundef %23, i64 noundef %25, ptr noundef %26) #12
  %28 = icmp slt i32 %27, 0
  br i1 %28, label %29, label %33

29:                                               ; preds = %17
  %30 = load i64, ptr @H5E_IO_g, align 8, !tbaa !10
  %31 = load i64, ptr @H5E_WRITEERROR_g, align 8, !tbaa !10
  %32 = tail call i32 (ptr, ptr, i32, i64, i64, ptr, ...) @H5E_printf_stack(ptr noundef nonnull @.str.2, ptr noundef nonnull @__func__.H5D__flush_sieve_buf, i32 noundef 3254, i64 noundef %30, i64 noundef %31, ptr noundef nonnull @.str.120) #12
  br label %36

33:                                               ; preds = %17
  %34 = load ptr, ptr %9, align 8, !tbaa !52
  %35 = getelementptr inbounds nuw i8, ptr %34, i64 3312
  store i8 0, ptr %35, align 8, !tbaa !170
  br label %36

36:                                               ; preds = %29, %33, %13, %8, %1
  %.0 = phi i32 [ -1, %29 ], [ 0, %33 ], [ 0, %13 ], [ 0, %8 ], [ 0, %1 ]
  ret i32 %.0
}